; Function Attrs: mustprogress uwtable
define dso_local void @_ZN3net22QuicSentEntropyManager23RecordPacketEntropyHashEmh(ptr noundef nonnull align 8 dereferenceable(128) %this, i64 noundef %packet_number, i8 noundef zeroext %entropy_hash) local_unnamed_addr #0 align 2 personality ptr @__gxx_personality_v0 {
entry:
  %entropy_hash.addr = alloca i8, align 1
  store i8 %entropy_hash, ptr %entropy_hash.addr, align 1
  %_M_finish.i = getelementptr inbounds i8, ptr %this, i64 56
  %0 = load ptr, ptr %_M_finish.i, align 8
  %_M_last.i = getelementptr inbounds i8, ptr %this, i64 72
  %1 = load ptr, ptr %_M_last.i, align 8
  %add.ptr.i = getelementptr inbounds i8, ptr %1, i64 -1
  %cmp.not.i = icmp eq ptr %0, %add.ptr.i
  br i1 %cmp.not.i, label %if.else.i, label %if.then.i

if.then.i:                                        ; preds = %entry
  store i8 %entropy_hash, ptr %0, align 1
  %2 = load ptr, ptr %_M_finish.i, align 8
  %incdec.ptr.i = getelementptr inbounds i8, ptr %2, i64 1
  store ptr %incdec.ptr.i, ptr %_M_finish.i, align 8
  br label %_ZNSt5dequeIhSaIhEE9push_backERKh.exit

if.else.i:                                        ; preds = %entry
  %packets_entropy_ = getelementptr inbounds i8, ptr %this, i64 8
  call void @_ZNSt5dequeIhSaIhEE16_M_push_back_auxIJRKhEEEvDpOT_(ptr noundef nonnull align 8 dereferenceable(80) %packets_entropy_, ptr noundef nonnull align 1 dereferenceable(1) %entropy_hash.addr)
  br label %_ZNSt5dequeIhSaIhEE9push_backERKh.exit

_ZNSt5dequeIhSaIhEE9push_backERKh.exit:           ; preds = %if.then.i, %if.else.i
  ret void
}